target datalayout = "e-m:e-p270:32:32-p271:32:32-p272:64:64-i64:64-i128:128-f80:128-n8:16:32:64-S128"
target triple = "x86_64-unknown-linux-gnu"

%struct.Object = type { ptr, ptr, ptr, i32, ptr }
%struct.NICPeers = type { [1024 x ptr], i32 }
%struct.NetClientState = type { ptr, i32, %union.anon, ptr, ptr, ptr, ptr, [256 x i8], i8, ptr, i32, i8, i32, i32, i8, i8, i8, %union.anon.0 }
%union.anon = type { %struct.QTailQLink }
%struct.QTailQLink = type { ptr, ptr }
%union.anon.0 = type { %struct.QTailQLink }
%struct.NetClientInfo = type { i32, i64, ptr, ptr, ptr, ptr, ptr, ptr, ptr, ptr, ptr, ptr, ptr, ptr, ptr, ptr, ptr, ptr, ptr, ptr, ptr, ptr, ptr, ptr, ptr, ptr, ptr }
%struct.Property = type { ptr, ptr, i64, i8, i64, i8, %union.anon.2, i32, ptr, i32, ptr }
%union.anon.2 = type { i64 }
%struct.GlobalProperty = type { ptr, ptr, ptr, i8, i8 }

@.str.9 = private unnamed_addr constant [41 x i8] c"../qemu/hw/core/qdev-properties-system.c\00", align 1
@__func__.check_prop_still_unset = private unnamed_addr constant [23 x i8] c"check_prop_still_unset\00", align 1
@.str.47 = private unnamed_addr constant [39 x i8] c"-global %s.%s=... conflicts with %s=%s\00", align 1
@.str.48 = private unnamed_addr constant [49 x i8] c"%s=%s conflicts, and override is not implemented\00", align 1
@__func__.set_netdev = private unnamed_addr constant [11 x i8] c"set_netdev\00", align 1
@.str.50 = private unnamed_addr constant [55 x i8] c"queues of backend '%s'(%d) exceeds QEMU limitation(%d)\00", align 1

; Function Attrs: nounwind sspstrong uwtable
define internal zeroext i1 @check_prop_still_unset(ptr noundef %obj, ptr noundef %name, ptr noundef %old_val, ptr noundef %new_val, i1 noundef zeroext %allow_override, ptr noundef %errp) #0 {
entry:
  %retval = alloca i1, align 1
  %obj.addr = alloca ptr, align 8
  %name.addr = alloca ptr, align 8
  %old_val.addr = alloca ptr, align 8
  %new_val.addr = alloca ptr, align 8
  %allow_override.addr = alloca i8, align 1
  %errp.addr = alloca ptr, align 8
  %prop = alloca ptr, align 8
  store ptr %obj, ptr %obj.addr, align 8
  store ptr %name, ptr %name.addr, align 8
  store ptr %old_val, ptr %old_val.addr, align 8
  store ptr %new_val, ptr %new_val.addr, align 8
  %frombool = zext i1 %allow_override to i8
  store i8 %frombool, ptr %allow_override.addr, align 1
  store ptr %errp, ptr %errp.addr, align 8
  %0 = load ptr, ptr %obj.addr, align 8
  %1 = load ptr, ptr %name.addr, align 8
  %call = call ptr @qdev_find_global_prop(ptr noundef %0, ptr noundef %1)
  store ptr %call, ptr %prop, align 8
  %2 = load ptr, ptr %old_val.addr, align 8
  %tobool = icmp ne ptr %2, null
  br i1 %tobool, label %lor.lhs.false, label %if.then

lor.lhs.false:                                    ; preds = %entry
  %3 = load ptr, ptr %prop, align 8
  %tobool1 = icmp ne ptr %3, null
  br i1 %tobool1, label %if.end, label %land.lhs.true

land.lhs.true:                                    ; preds = %lor.lhs.false
  %4 = load i8, ptr %allow_override.addr, align 1
  %tobool2 = trunc i8 %4 to i1
  br i1 %tobool2, label %if.then, label %if.end

if.then:                                          ; preds = %land.lhs.true, %entry
  store i1 true, ptr %retval, align 1
  br label %return

if.end:                                           ; preds = %land.lhs.true, %lor.lhs.false
  %5 = load ptr, ptr %prop, align 8
  %tobool3 = icmp ne ptr %5, null
  br i1 %tobool3, label %if.then4, label %if.else

if.then4:                                         ; preds = %if.end
  %6 = load ptr, ptr %errp.addr, align 8
  %7 = load ptr, ptr %prop, align 8
  %driver = getelementptr inbounds %struct.GlobalProperty, ptr %7, i32 0, i32 0
  %8 = load ptr, ptr %driver, align 8
  %9 = load ptr, ptr %prop, align 8
  %property = getelementptr inbounds %struct.GlobalProperty, ptr %9, i32 0, i32 1
  %10 = load ptr, ptr %property, align 8
  %11 = load ptr, ptr %name.addr, align 8
  %12 = load ptr, ptr %new_val.addr, align 8
  call void (ptr, ptr, i32, ptr, ptr, ...) @error_setg_internal(ptr noundef %6, ptr noundef @.str.9, i32 noundef 51, ptr noundef @__func__.check_prop_still_unset, ptr noundef @.str.47, ptr noundef %8, ptr noundef %10, ptr noundef %11, ptr noundef %12)
  br label %if.end5

if.else:                                          ; preds = %if.end
  %13 = load ptr, ptr %errp.addr, align 8
  %14 = load ptr, ptr %name.addr, align 8
  %15 = load ptr, ptr %new_val.addr, align 8
  call void (ptr, ptr, i32, ptr, ptr, ...) @error_setg_internal(ptr noundef %13, ptr noundef @.str.9, i32 noundef 55, ptr noundef @__func__.check_prop_still_unset, ptr noundef @.str.48, ptr noundef %14, ptr noundef %15)
  br label %if.end5

if.end5:                                          ; preds = %if.else, %if.then4
  store i1 false, ptr %retval, align 1
  br label %return

return:                                           ; preds = %if.end5, %if.then
  %16 = load i1, ptr %retval, align 1
  ret i1 %16
}

; Function Attrs: nounwind sspstrong uwtable
define internal void @set_netdev(ptr noundef %obj, ptr noundef %v, ptr noundef %name, ptr noundef %opaque, ptr noundef %errp) #0 {
entry:
  %obj.addr = alloca ptr, align 8
  %v.addr = alloca ptr, align 8
  %name.addr = alloca ptr, align 8
  %opaque.addr = alloca ptr, align 8
  %errp.addr = alloca ptr, align 8
  %prop = alloca ptr, align 8
  %peers_ptr = alloca ptr, align 8
  %ncs = alloca ptr, align 8
  %peers = alloca [1024 x ptr], align 16
  %queues = alloca i32, align 4
  %err = alloca i32, align 4
  %i = alloca i32, align 4
  %str = alloca ptr, align 8
  store ptr %obj, ptr %obj.addr, align 8
  store ptr %v, ptr %v.addr, align 8
  store ptr %name, ptr %name.addr, align 8
  store ptr %opaque, ptr %opaque.addr, align 8
  store ptr %errp, ptr %errp.addr, align 8
  %0 = load ptr, ptr %opaque.addr, align 8
  store ptr %0, ptr %prop, align 8
  %1 = load ptr, ptr %obj.addr, align 8
  %2 = load ptr, ptr %prop, align 8
  %call = call ptr @object_field_prop_ptr(ptr noundef %1, ptr noundef %2)
  store ptr %call, ptr %peers_ptr, align 8
  %3 = load ptr, ptr %peers_ptr, align 8
  %ncs1 = getelementptr inbounds %struct.NICPeers, ptr %3, i32 0, i32 0
  %arraydecay = getelementptr inbounds [1024 x ptr], ptr %ncs1, i64 0, i64 0
  store ptr %arraydecay, ptr %ncs, align 8
  store i32 0, ptr %err, align 4
  store i32 0, ptr %i, align 4
  %4 = load ptr, ptr %v.addr, align 8
  %5 = load ptr, ptr %name.addr, align 8
  %6 = load ptr, ptr %errp.addr, align 8
  %call2 = call zeroext i1 @visit_type_str(ptr noundef %4, ptr noundef %5, ptr noundef %str, ptr noundef %6)
  br i1 %call2, label %if.end, label %if.then

if.then:                                          ; preds = %entry
  br label %return

if.end:                                           ; preds = %entry
  %7 = load ptr, ptr %str, align 8
  %arraydecay3 = getelementptr inbounds [1024 x ptr], ptr %peers, i64 0, i64 0
  %call4 = call i32 @qemu_find_net_clients_except(ptr noundef %7, ptr noundef %arraydecay3, i32 noundef 1, i32 noundef 1024)
  store i32 %call4, ptr %queues, align 4
  %8 = load i32, ptr %queues, align 4
  %cmp = icmp eq i32 %8, 0
  br i1 %cmp, label %if.then5, label %if.end6

if.then5:                                         ; preds = %if.end
  store i32 -2, ptr %err, align 4
  br label %out

if.end6:                                          ; preds = %if.end
  %9 = load i32, ptr %queues, align 4
  %cmp7 = icmp sgt i32 %9, 1024
  br i1 %cmp7, label %if.then8, label %if.end9

if.then8:                                         ; preds = %if.end6
  %10 = load ptr, ptr %errp.addr, align 8
  %11 = load ptr, ptr %str, align 8
  %12 = load i32, ptr %queues, align 4
  call void (ptr, ptr, i32, ptr, ptr, ...) @error_setg_internal(ptr noundef %10, ptr noundef @.str.9, i32 noundef 422, ptr noundef @__func__.set_netdev, ptr noundef @.str.50, ptr noundef %11, i32 noundef %12, i32 noundef 1024)
  br label %out

if.end9:                                          ; preds = %if.end6
  store i32 0, ptr %i, align 4
  br label %for.cond

for.cond:                                         ; preds = %for.inc, %if.end9
  %13 = load i32, ptr %i, align 4
  %14 = load i32, ptr %queues, align 4
  %cmp10 = icmp slt i32 %13, %14
  br i1 %cmp10, label %for.body, label %for.end

for.body:                                         ; preds = %for.cond
  %15 = load i32, ptr %i, align 4
  %idxprom = sext i32 %15 to i64
  %arrayidx = getelementptr [1024 x ptr], ptr %peers, i64 0, i64 %idxprom
  %16 = load ptr, ptr %arrayidx, align 8
  %peer = getelementptr inbounds %struct.NetClientState, ptr %16, i32 0, i32 3
  %17 = load ptr, ptr %peer, align 8
  %tobool = icmp ne ptr %17, null
  br i1 %tobool, label %if.then11, label %if.end12

if.then11:                                        ; preds = %for.body
  store i32 -17, ptr %err, align 4
  br label %out

if.end12:                                         ; preds = %for.body
  %18 = load ptr, ptr %obj.addr, align 8
  %19 = load ptr, ptr %name.addr, align 8
  %20 = load ptr, ptr %ncs, align 8
  %21 = load i32, ptr %i, align 4
  %idxprom13 = sext i32 %21 to i64
  %arrayidx14 = getelementptr ptr, ptr %20, i64 %idxprom13
  %22 = load ptr, ptr %arrayidx14, align 8
  %23 = load ptr, ptr %str, align 8
  %24 = load ptr, ptr %errp.addr, align 8
  %call15 = call zeroext i1 @check_prop_still_unset(ptr noundef %18, ptr noundef %19, ptr noundef %22, ptr noundef %23, i1 noundef zeroext false, ptr noundef %24)
  br i1 %call15, label %if.end17, label %if.then16

if.then16:                                        ; preds = %if.end12
  br label %out

if.end17:                                         ; preds = %if.end12
  %25 = load i32, ptr %i, align 4
  %idxprom18 = sext i32 %25 to i64
  %arrayidx19 = getelementptr [1024 x ptr], ptr %peers, i64 0, i64 %idxprom18
  %26 = load ptr, ptr %arrayidx19, align 8
  %info = getelementptr inbounds %struct.NetClientState, ptr %26, i32 0, i32 0
  %27 = load ptr, ptr %info, align 8
  %check_peer_type = getelementptr inbounds %struct.NetClientInfo, ptr %27, i32 0, i32 26
  %28 = load ptr, ptr %check_peer_type, align 8
  %tobool20 = icmp ne ptr %28, null
  br i1 %tobool20, label %if.then21, label %if.end31

if.then21:                                        ; preds = %if.end17
  %29 = load i32, ptr %i, align 4
  %idxprom22 = sext i32 %29 to i64
  %arrayidx23 = getelementptr [1024 x ptr], ptr %peers, i64 0, i64 %idxprom22
  %30 = load ptr, ptr %arrayidx23, align 8
  %info24 = getelementptr inbounds %struct.NetClientState, ptr %30, i32 0, i32 0
  %31 = load ptr, ptr %info24, align 8
  %check_peer_type25 = getelementptr inbounds %struct.NetClientInfo, ptr %31, i32 0, i32 26
  %32 = load ptr, ptr %check_peer_type25, align 8
  %33 = load i32, ptr %i, align 4
  %idxprom26 = sext i32 %33 to i64
  %arrayidx27 = getelementptr [1024 x ptr], ptr %peers, i64 0, i64 %idxprom26
  %34 = load ptr, ptr %arrayidx27, align 8
  %35 = load ptr, ptr %obj.addr, align 8
  %class = getelementptr inbounds %struct.Object, ptr %35, i32 0, i32 0
  %36 = load ptr, ptr %class, align 8
  %37 = load ptr, ptr %errp.addr, align 8
  %call28 = call zeroext i1 %32(ptr noundef %34, ptr noundef %36, ptr noundef %37)
  br i1 %call28, label %if.end30, label %if.then29

if.then29:                                        ; preds = %if.then21
  br label %out

if.end30:                                         ; preds = %if.then21
  br label %if.end31

if.end31:                                         ; preds = %if.end30, %if.end17
  %38 = load i32, ptr %i, align 4
  %idxprom32 = sext i32 %38 to i64
  %arrayidx33 = getelementptr [1024 x ptr], ptr %peers, i64 0, i64 %idxprom32
  %39 = load ptr, ptr %arrayidx33, align 8
  %40 = load ptr, ptr %ncs, align 8
  %41 = load i32, ptr %i, align 4
  %idxprom34 = sext i32 %41 to i64
  %arrayidx35 = getelementptr ptr, ptr %40, i64 %idxprom34
  store ptr %39, ptr %arrayidx35, align 8
  %42 = load i32, ptr %i, align 4
  %43 = load ptr, ptr %ncs, align 8
  %44 = load i32, ptr %i, align 4
  %idxprom36 = sext i32 %44 to i64
  %arrayidx37 = getelementptr ptr, ptr %43, i64 %idxprom36
  %45 = load ptr, ptr %arrayidx37, align 8
  %queue_index = getelementptr inbounds %struct.NetClientState, ptr %45, i32 0, i32 10
  store i32 %42, ptr %queue_index, align 8
  br label %for.inc

for.inc:                                          ; preds = %if.end31
  %46 = load i32, ptr %i, align 4
  %inc = add i32 %46, 1
  store i32 %inc, ptr %i, align 4
  br label %for.cond, !llvm.loop !7

for.end:                                          ; preds = %for.cond
  %47 = load i32, ptr %queues, align 4
  %48 = load ptr, ptr %peers_ptr, align 8
  %queues38 = getelementptr inbounds %struct.NICPeers, ptr %48, i32 0, i32 1
  store i32 %47, ptr %queues38, align 8
  br label %out

out:                                              ; preds = %for.end, %if.then29, %if.then16, %if.then11, %if.then8, %if.then5
  %49 = load ptr, ptr %errp.addr, align 8
  %50 = load i32, ptr %err, align 4
  %51 = load ptr, ptr %obj.addr, align 8
  %52 = load ptr, ptr %prop, align 8
  %name39 = getelementptr inbounds %struct.Property, ptr %52, i32 0, i32 0
  %53 = load ptr, ptr %name39, align 8
  %54 = load ptr, ptr %str, align 8
  call void @error_set_from_qdev_prop_error(ptr noundef %49, i32 noundef %50, ptr noundef %51, ptr noundef %53, ptr noundef %54)
  %55 = load ptr, ptr %str, align 8
  call void @g_free(ptr noundef %55)
  br label %return

return:                                           ; preds = %out, %if.then
  ret void
}