; Function Attrs: nounwind sspstrong uwtable
define internal void @set_netdev(ptr noundef %obj, ptr noundef %v, ptr noundef %name, ptr noundef %opaque, ptr noundef %errp) #0 {
entry:
  %peers = alloca [1024 x ptr], align 16
  %str = alloca ptr, align 8
  %call = tail call ptr @object_field_prop_ptr(ptr noundef %obj, ptr noundef %opaque) #10
  %call2 = call zeroext i1 @visit_type_str(ptr noundef %v, ptr noundef %name, ptr noundef nonnull %str, ptr noundef %errp) #10
  br i1 %call2, label %if.end, label %return

if.end:                                           ; preds = %entry
  %0 = load ptr, ptr %str, align 8
  %call4 = call i32 @qemu_find_net_clients_except(ptr noundef %0, ptr noundef nonnull %peers, i32 noundef 1, i32 noundef 1024) #10
  %cmp = icmp eq i32 %call4, 0
  br i1 %cmp, label %out, label %if.end6

if.end6:                                          ; preds = %if.end
  %cmp7 = icmp sgt i32 %call4, 1024
  br i1 %cmp7, label %if.then8, label %for.cond.preheader

for.cond.preheader:                               ; preds = %if.end6
  %cmp1028 = icmp sgt i32 %call4, 0
  br i1 %cmp1028, label %for.body.preheader, label %for.end

for.body.preheader:                               ; preds = %for.cond.preheader
  %wide.trip.count = zext nneg i32 %call4 to i64
  br label %for.body

if.then8:                                         ; preds = %if.end6
  %1 = load ptr, ptr %str, align 8
  call void (ptr, ptr, i32, ptr, ptr, ...) @error_setg_internal(ptr noundef %errp, ptr noundef nonnull @.str.9, i32 noundef 422, ptr noundef nonnull @__func__.set_netdev, ptr noundef nonnull @.str.50, ptr noundef %1, i32 noundef %call4, i32 noundef 1024) #10
  br label %out

for.body:                                         ; preds = %for.body.preheader, %if.end31
  %indvars.iv = phi i64 [ 0, %for.body.preheader ], [ %indvars.iv.next, %if.end31 ]
  %arrayidx = getelementptr [1024 x ptr], ptr %peers, i64 0, i64 %indvars.iv
  %2 = load ptr, ptr %arrayidx, align 8
  %peer = getelementptr inbounds nuw i8, ptr %2, i64 32
  %3 = load ptr, ptr %peer, align 8
  %tobool.not = icmp eq ptr %3, null
  br i1 %tobool.not, label %if.end12, label %out

if.end12:                                         ; preds = %for.body
  %arrayidx14 = getelementptr ptr, ptr %call, i64 %indvars.iv
  %4 = load ptr, ptr %arrayidx14, align 8
  %5 = load ptr, ptr %str, align 8
  %call.i = call ptr @qdev_find_global_prop(ptr noundef %obj, ptr noundef %name) #10
  %tobool.not.i = icmp eq ptr %4, null
  br i1 %tobool.not.i, label %if.end17, label %lor.lhs.false.i

lor.lhs.false.i:                                  ; preds = %if.end12
  %tobool1.not.i = icmp eq ptr %call.i, null
  br i1 %tobool1.not.i, label %if.else.i, label %if.then4.i

if.then4.i:                                       ; preds = %lor.lhs.false.i
  %6 = load ptr, ptr %call.i, align 8
  %property.i = getelementptr inbounds nuw i8, ptr %call.i, i64 8
  %7 = load ptr, ptr %property.i, align 8
  call void (ptr, ptr, i32, ptr, ptr, ...) @error_setg_internal(ptr noundef %errp, ptr noundef nonnull @.str.9, i32 noundef 51, ptr noundef nonnull @__func__.check_prop_still_unset, ptr noundef nonnull @.str.47, ptr noundef %6, ptr noundef %7, ptr noundef %name, ptr noundef %5) #10
  br label %out

if.else.i:                                        ; preds = %lor.lhs.false.i
  call void (ptr, ptr, i32, ptr, ptr, ...) @error_setg_internal(ptr noundef %errp, ptr noundef nonnull @.str.9, i32 noundef 55, ptr noundef nonnull @__func__.check_prop_still_unset, ptr noundef nonnull @.str.48, ptr noundef %name, ptr noundef %5) #10
  br label %out

if.end17:                                         ; preds = %if.end12
  %8 = load ptr, ptr %arrayidx, align 8
  %9 = load ptr, ptr %8, align 8
  %check_peer_type = getelementptr inbounds nuw i8, ptr %9, i64 208
  %10 = load ptr, ptr %check_peer_type, align 8
  %tobool20.not = icmp eq ptr %10, null
  br i1 %tobool20.not, label %if.end31, label %if.then21

if.then21:                                        ; preds = %if.end17
  %11 = load ptr, ptr %obj, align 8
  %call28 = call zeroext i1 %10(ptr noundef nonnull %8, ptr noundef %11, ptr noundef %errp) #10
  br i1 %call28, label %if.then21.if.end31_crit_edge, label %out

if.then21.if.end31_crit_edge:                     ; preds = %if.then21
  %.pre = load ptr, ptr %arrayidx, align 8
  br label %if.end31

if.end31:                                         ; preds = %if.then21.if.end31_crit_edge, %if.end17
  %12 = phi ptr [ %.pre, %if.then21.if.end31_crit_edge ], [ %8, %if.end17 ]
  store ptr %12, ptr %arrayidx14, align 8
  %queue_index = getelementptr inbounds nuw i8, ptr %12, i64 336
  %13 = trunc nuw nsw i64 %indvars.iv to i32
  store i32 %13, ptr %queue_index, align 8
  %indvars.iv.next = add nuw nsw i64 %indvars.iv, 1
  %exitcond.not = icmp eq i64 %indvars.iv.next, %wide.trip.count
  br i1 %exitcond.not, label %for.end, label %for.body, !llvm.loop !7

for.end:                                          ; preds = %if.end31, %for.cond.preheader
  %queues38 = getelementptr inbounds nuw i8, ptr %call, i64 8192
  store i32 %call4, ptr %queues38, align 8
  br label %out

out:                                              ; preds = %for.body, %if.then21, %if.then4.i, %if.else.i, %if.end, %for.end, %if.then8
  %err.0 = phi i32 [ 0, %if.then8 ], [ 0, %for.end ], [ -2, %if.end ], [ 0, %if.else.i ], [ 0, %if.then4.i ], [ -17, %for.body ], [ 0, %if.then21 ]
  %14 = load ptr, ptr %opaque, align 8
  %15 = load ptr, ptr %str, align 8
  call void @error_set_from_qdev_prop_error(ptr noundef %errp, i32 noundef %err.0, ptr noundef %obj, ptr noundef %14, ptr noundef %15) #10
  %16 = load ptr, ptr %str, align 8
  call void @g_free(ptr noundef %16) #10
  br label %return

return:                                           ; preds = %entry, %out
  ret void
}